target datalayout = "e-m:e-p270:32:32-p271:32:32-p272:64:64-i64:64-i128:128-f80:128-n8:16:32:64-S128"
target triple = "x86_64-pc-linux-gnu"

%struct.AVCodecContext = type { ptr, i32, i32, ptr, i32, i32, ptr, ptr, ptr, i64, i32, i32, ptr, i32, %struct.AVRational, %struct.AVRational, %struct.AVRational, i32, i32, i32, i32, i32, %struct.AVRational, i32, i32, i32, i32, i32, i32, i32, i32, i32, i32, i32, ptr, ptr, i32, float, float, float, float, float, float, float, float, float, i32, i32, i32, i32, i32, i32, i32, i32, i32, i32, i32, i32, ptr, ptr, ptr, i32, i32, i32, i32, i32, i32, i32, i32, i32, i32, %struct.AVChannelLayout, i32, i32, i32, i32, i32, i32, i32, i32, ptr, i32, i32, i32, float, float, i32, i32, i32, i32, i32, ptr, i64, i64, float, float, i32, i32, ptr, ptr, i32, i32, i32, i32, i32, ptr, ptr, ptr, ptr, i32, i32, [8 x i64], i32, i32, i32, i32, i32, i32, i32, ptr, ptr, i32, i32, i32, i32, i32, i32, i32, i32, i32, i32, ptr, ptr, i32, i32, ptr, ptr, ptr, ptr, i32, i32, i64, i32, i32, i64, ptr, i64, ptr, i32, ptr, i32 }
%struct.AVRational = type { i32, i32 }
%struct.AVChannelLayout = type { i32, i32, %union.anon.0, ptr }
%union.anon.0 = type { i64 }
%struct.HYuvDecContext = type { %struct.GetBitContext, i32, i32, i32, i32, i32, i32, i32, i32, i32, i32, i32, i32, i32, i32, i32, i32, i32, i32, %union.anon.1, [4 x [16384 x i8]], [4 x [16384 x i32]], [4096 x i32], [8 x %struct.VLC], ptr, i32, %struct.BswapDSPContext, %struct.HuffYUVDSPContext, %struct.LLVidDSPContext }
%struct.GetBitContext = type { ptr, ptr, i32, i32, i32 }
%union.anon.1 = type { [3 x ptr] }
%struct.VLC = type { i32, ptr, i32, i32 }
%struct.BswapDSPContext = type { ptr, ptr }
%struct.HuffYUVDSPContext = type { ptr, ptr, ptr }
%struct.LLVidDSPContext = type { ptr, ptr, ptr, ptr, ptr }
%struct.AVFrame = type { [8 x ptr], [8 x i32], ptr, i32, i32, i32, i32, i32, %struct.AVRational, i64, i64, %struct.AVRational, i32, ptr, i32, i32, [8 x ptr], ptr, i32, ptr, i32, i32, i32, i32, i32, i32, i32, i64, ptr, i32, ptr, ptr, i64, i64, i64, i64, ptr, %struct.AVChannelLayout, i64 }

; Function Attrs: nounwind uwtable
define internal void @draw_slice(ptr noundef %0, ptr noundef %1, ptr noundef %2, i32 noundef %3) #1 {
  %5 = alloca ptr, align 8
  %6 = alloca ptr, align 8
  %7 = alloca ptr, align 8
  %8 = alloca i32, align 4
  %9 = alloca i32, align 4
  %10 = alloca i32, align 4
  %11 = alloca i32, align 4
  %12 = alloca [8 x i32], align 16
  %13 = alloca i32, align 4
  store ptr %0, ptr %5, align 8, !tbaa !29
  store ptr %1, ptr %6, align 8, !tbaa !4
  store ptr %2, ptr %7, align 8, !tbaa !64
  store i32 %3, ptr %8, align 4, !tbaa !33
  call void @llvm.lifetime.start.p0(i64 4, ptr %9) #10
  call void @llvm.lifetime.start.p0(i64 4, ptr %10) #10
  call void @llvm.lifetime.start.p0(i64 4, ptr %11) #10
  call void @llvm.lifetime.start.p0(i64 32, ptr %12) #10
  %14 = load ptr, ptr %6, align 8, !tbaa !4
  %15 = getelementptr inbounds nuw %struct.AVCodecContext, ptr %14, i32 0, i32 34
  %16 = load ptr, ptr %15, align 8, !tbaa !132
  %17 = icmp ne ptr %16, null
  br i1 %17, label %19, label %18

18:                                               ; preds = %4
  store i32 1, ptr %13, align 4
  br label %86

19:                                               ; preds = %4
  %20 = load i32, ptr %8, align 4, !tbaa !33
  %21 = load ptr, ptr %5, align 8, !tbaa !29
  %22 = getelementptr inbounds nuw %struct.HYuvDecContext, ptr %21, i32 0, i32 18
  %23 = load i32, ptr %22, align 4, !tbaa !75
  %24 = sub nsw i32 %20, %23
  store i32 %24, ptr %9, align 4, !tbaa !33
  %25 = load i32, ptr %9, align 4, !tbaa !33
  %26 = load i32, ptr %8, align 4, !tbaa !33
  %27 = sub nsw i32 %26, %25
  store i32 %27, ptr %8, align 4, !tbaa !33
  %28 = load ptr, ptr %5, align 8, !tbaa !29
  %29 = getelementptr inbounds nuw %struct.HYuvDecContext, ptr %28, i32 0, i32 4
  %30 = load i32, ptr %29, align 4, !tbaa !55
  %31 = icmp eq i32 %30, 12
  br i1 %31, label %32, label %35

32:                                               ; preds = %19
  %33 = load i32, ptr %8, align 4, !tbaa !33
  %34 = ashr i32 %33, 1
  store i32 %34, ptr %10, align 4, !tbaa !33
  br label %37

35:                                               ; preds = %19
  %36 = load i32, ptr %8, align 4, !tbaa !33
  store i32 %36, ptr %10, align 4, !tbaa !33
  br label %37

37:                                               ; preds = %35, %32
  %38 = load ptr, ptr %7, align 8, !tbaa !64
  %39 = getelementptr inbounds nuw %struct.AVFrame, ptr %38, i32 0, i32 1
  %40 = getelementptr inbounds [8 x i32], ptr %39, i64 0, i64 0
  %41 = load i32, ptr %40, align 8, !tbaa !33
  %42 = load i32, ptr %8, align 4, !tbaa !33
  %43 = mul nsw i32 %41, %42
  %44 = getelementptr inbounds [8 x i32], ptr %12, i64 0, i64 0
  store i32 %43, ptr %44, align 16, !tbaa !33
  %45 = load ptr, ptr %7, align 8, !tbaa !64
  %46 = getelementptr inbounds nuw %struct.AVFrame, ptr %45, i32 0, i32 1
  %47 = getelementptr inbounds [8 x i32], ptr %46, i64 0, i64 1
  %48 = load i32, ptr %47, align 4, !tbaa !33
  %49 = load i32, ptr %10, align 4, !tbaa !33
  %50 = mul nsw i32 %48, %49
  %51 = getelementptr inbounds [8 x i32], ptr %12, i64 0, i64 1
  store i32 %50, ptr %51, align 4, !tbaa !33
  %52 = load ptr, ptr %7, align 8, !tbaa !64
  %53 = getelementptr inbounds nuw %struct.AVFrame, ptr %52, i32 0, i32 1
  %54 = getelementptr inbounds [8 x i32], ptr %53, i64 0, i64 2
  %55 = load i32, ptr %54, align 8, !tbaa !33
  %56 = load i32, ptr %10, align 4, !tbaa !33
  %57 = mul nsw i32 %55, %56
  %58 = getelementptr inbounds [8 x i32], ptr %12, i64 0, i64 2
  store i32 %57, ptr %58, align 8, !tbaa !33
  store i32 3, ptr %11, align 4, !tbaa !33
  br label %59

59:                                               ; preds = %66, %37
  %60 = load i32, ptr %11, align 4, !tbaa !33
  %61 = icmp slt i32 %60, 8
  br i1 %61, label %62, label %69

62:                                               ; preds = %59
  %63 = load i32, ptr %11, align 4, !tbaa !33
  %64 = sext i32 %63 to i64
  %65 = getelementptr inbounds [8 x i32], ptr %12, i64 0, i64 %64
  store i32 0, ptr %65, align 4, !tbaa !33
  br label %66

66:                                               ; preds = %62
  %67 = load i32, ptr %11, align 4, !tbaa !33
  %68 = add nsw i32 %67, 1
  store i32 %68, ptr %11, align 4, !tbaa !33
  br label %59, !llvm.loop !133

69:                                               ; preds = %59
  br label %70

70:                                               ; preds = %69
  br label %71

71:                                               ; preds = %70
  br label %72

72:                                               ; preds = %71
  %73 = load ptr, ptr %6, align 8, !tbaa !4
  %74 = getelementptr inbounds nuw %struct.AVCodecContext, ptr %73, i32 0, i32 34
  %75 = load ptr, ptr %74, align 8, !tbaa !132
  %76 = load ptr, ptr %6, align 8, !tbaa !4
  %77 = load ptr, ptr %7, align 8, !tbaa !64
  %78 = getelementptr inbounds [8 x i32], ptr %12, i64 0, i64 0
  %79 = load i32, ptr %8, align 4, !tbaa !33
  %80 = load i32, ptr %9, align 4, !tbaa !33
  call void %75(ptr noundef %76, ptr noundef %77, ptr noundef %78, i32 noundef %79, i32 noundef 3, i32 noundef %80)
  %81 = load i32, ptr %8, align 4, !tbaa !33
  %82 = load i32, ptr %9, align 4, !tbaa !33
  %83 = add nsw i32 %81, %82
  %84 = load ptr, ptr %5, align 8, !tbaa !29
  %85 = getelementptr inbounds nuw %struct.HYuvDecContext, ptr %84, i32 0, i32 18
  store i32 %83, ptr %85, align 4, !tbaa !75
  store i32 0, ptr %13, align 4
  br label %86

86:                                               ; preds = %72, %18
  call void @llvm.lifetime.end.p0(i64 32, ptr %12) #10
  call void @llvm.lifetime.end.p0(i64 4, ptr %11) #10
  call void @llvm.lifetime.end.p0(i64 4, ptr %10) #10
  call void @llvm.lifetime.end.p0(i64 4, ptr %9) #10
  %87 = load i32, ptr %13, align 4
  switch i32 %87, label %89 [
    i32 0, label %88
    i32 1, label %88
  ]

88:                                               ; preds = %86, %86
  ret void

89:                                               ; preds = %86
  unreachable
}