; Function Attrs: nounwind uwtable
define internal fastcc void @draw_slice(ptr noundef captures(none) %0, ptr noundef %1, ptr noundef %2, i32 noundef %3) unnamed_addr #1 {
  %5 = alloca [8 x i32], align 16
  call void @llvm.lifetime.start.p0(i64 32, ptr nonnull %5) #9
  %6 = getelementptr inbounds nuw i8, ptr %1, i64 184
  %7 = load ptr, ptr %6, align 8, !tbaa !86
  %.not = icmp eq ptr %7, null
  br i1 %.not, label %27, label %8

8:                                                ; preds = %4
  %9 = getelementptr inbounds nuw i8, ptr %0, i64 100
  %10 = load i32, ptr %9, align 4, !tbaa !69
  %11 = getelementptr inbounds nuw i8, ptr %0, i64 44
  %12 = load i32, ptr %11, align 4, !tbaa !50
  %13 = icmp eq i32 %12, 12
  %14 = zext i1 %13 to i32
  %.024 = ashr i32 %10, %14
  %15 = getelementptr inbounds nuw i8, ptr %2, i64 64
  %16 = load i32, ptr %15, align 8, !tbaa !58
  %17 = mul nsw i32 %16, %10
  store i32 %17, ptr %5, align 16, !tbaa !58
  %18 = getelementptr inbounds nuw i8, ptr %2, i64 68
  %19 = load i32, ptr %18, align 4, !tbaa !58
  %20 = mul nsw i32 %19, %.024
  %21 = getelementptr inbounds nuw i8, ptr %5, i64 4
  store i32 %20, ptr %21, align 4, !tbaa !58
  %22 = getelementptr inbounds nuw i8, ptr %2, i64 72
  %23 = load i32, ptr %22, align 8, !tbaa !58
  %24 = mul nsw i32 %23, %.024
  %25 = getelementptr inbounds nuw i8, ptr %5, i64 8
  store i32 %24, ptr %25, align 8, !tbaa !58
  %scevgep = getelementptr inbounds nuw i8, ptr %5, i64 12
  call void @llvm.memset.p0.i64(ptr noundef nonnull align 4 dereferenceable(20) %scevgep, i8 0, i64 20, i1 false), !tbaa !58
  %26 = sub nsw i32 %3, %10
  call void %7(ptr noundef nonnull %1, ptr noundef %2, ptr noundef nonnull %5, i32 noundef %10, i32 noundef 3, i32 noundef %26) #9
  store i32 %3, ptr %9, align 4, !tbaa !69
  br label %27

27:                                               ; preds = %4, %8
  call void @llvm.lifetime.end.p0(i64 32, ptr nonnull %5) #9
  ret void
}